target datalayout = "e-m:e-p270:32:32-p271:32:32-p272:64:64-i64:64-i128:128-f80:128-n8:16:32:64-S128"
target triple = "x86_64-pc-linux-gnu"

%"class.llvm::PressureChange" = type { i16, i16 }
%"struct.llvm::GenericSchedulerBase::SchedCandidate" = type { %"struct.llvm::GenericSchedulerBase::CandPolicy", ptr, i8, i8, %"struct.llvm::RegPressureDelta", %"struct.llvm::GenericSchedulerBase::SchedResourceDelta" }
%"struct.llvm::GenericSchedulerBase::CandPolicy" = type { i8, i32, i32 }
%"struct.llvm::RegPressureDelta" = type { %"class.llvm::PressureChange", %"class.llvm::PressureChange", %"class.llvm::PressureChange" }
%"struct.llvm::GenericSchedulerBase::SchedResourceDelta" = type { i32, i32 }

; Function Attrs: mustprogress nounwind uwtable
define dso_local noundef zeroext i1 @_ZN4llvm7tryLessEiiRNS_20GenericSchedulerBase14SchedCandidateES2_NS0_10CandReasonE(i32 noundef %0, i32 noundef %1, ptr noundef nonnull align 8 dereferenceable(48) %2, ptr noundef nonnull align 8 dereferenceable(48) %3, i8 noundef zeroext %4) #1 {
  %6 = alloca i1, align 1
  %7 = alloca i32, align 4
  %8 = alloca i32, align 4
  %9 = alloca ptr, align 8
  %10 = alloca ptr, align 8
  %11 = alloca i8, align 1
  store i32 %0, ptr %7, align 4
  store i32 %1, ptr %8, align 4
  store ptr %2, ptr %9, align 8
  store ptr %3, ptr %10, align 8
  store i8 %4, ptr %11, align 1
  %12 = load i32, ptr %7, align 4
  %13 = load i32, ptr %8, align 4
  %14 = icmp slt i32 %12, %13
  br i1 %14, label %15, label %19

15:                                               ; preds = %5
  %16 = load i8, ptr %11, align 1
  %17 = load ptr, ptr %9, align 8
  %18 = getelementptr inbounds nuw %"struct.llvm::GenericSchedulerBase::SchedCandidate", ptr %17, i32 0, i32 2
  store i8 %16, ptr %18, align 8
  store i1 true, ptr %6, align 1
  br label %37

19:                                               ; preds = %5
  %20 = load i32, ptr %7, align 4
  %21 = load i32, ptr %8, align 4
  %22 = icmp sgt i32 %20, %21
  br i1 %22, label %23, label %36

23:                                               ; preds = %19
  %24 = load ptr, ptr %10, align 8
  %25 = getelementptr inbounds nuw %"struct.llvm::GenericSchedulerBase::SchedCandidate", ptr %24, i32 0, i32 2
  %26 = load i8, ptr %25, align 8
  %27 = zext i8 %26 to i32
  %28 = load i8, ptr %11, align 1
  %29 = zext i8 %28 to i32
  %30 = icmp sgt i32 %27, %29
  br i1 %30, label %31, label %35

31:                                               ; preds = %23
  %32 = load i8, ptr %11, align 1
  %33 = load ptr, ptr %10, align 8
  %34 = getelementptr inbounds nuw %"struct.llvm::GenericSchedulerBase::SchedCandidate", ptr %33, i32 0, i32 2
  store i8 %32, ptr %34, align 8
  br label %35

35:                                               ; preds = %31, %23
  store i1 true, ptr %6, align 1
  br label %37

36:                                               ; preds = %19
  store i1 false, ptr %6, align 1
  br label %37

37:                                               ; preds = %36, %35, %15
  %38 = load i1, ptr %6, align 1
  ret i1 %38
}